target datalayout = "e-m:e-p270:32:32-p271:32:32-p272:64:64-i64:64-i128:128-f80:128-n8:16:32:64-S128"
target triple = "x86_64-pc-linux-gnu"

%class.rational = type { %class.mpq }
%class.mpq = type { %class.mpz, %class.mpz }
%class.mpz = type { i32, i8, ptr }
%class.symbol = type { ptr }
%"class.datalog::interval_relation_plugin" = type { %"class.datalog::relation_plugin.base", %class.scoped_dependency_manager, %class.old_interval, %class.arith_util }
%"class.datalog::relation_plugin.base" = type <{ %"class.datalog::tr_infrastructure<datalog::relation_traits>::plugin_object", i32 }>
%"class.datalog::tr_infrastructure<datalog::relation_traits>::plugin_object" = type { ptr, i32, %class.symbol, ptr }
%class.scoped_dependency_manager = type { [8 x i8], %"class.scoped_dependency_manager<void *>::config::allocator", %class.dependency_manager }
%"class.scoped_dependency_manager<void *>::config::allocator" = type { %class.region }
%class.region = type { ptr, ptr, ptr, ptr, ptr }
%class.dependency_manager = type { ptr, ptr, %class.ptr_vector }
%class.ptr_vector = type { %class.vector }
%class.vector = type { ptr }
%class.old_interval = type { ptr, %class.ext_numeral, %class.ext_numeral, i8, i8, ptr, ptr }
%class.ext_numeral = type { i32, %class.rational }
%class.arith_util = type { ptr, ptr }
%"class.datalog::relation_plugin" = type <{ %"class.datalog::tr_infrastructure<datalog::relation_traits>::plugin_object", i32, [4 x i8] }>

@.str.4 = private unnamed_addr constant [18 x i8] c"interval_relation\00", align 1

; Function Attrs: mustprogress nounwind uwtable
define linkonce_odr hidden void @_ZN6vectorIPN18dependency_managerIN25scoped_dependency_managerIPvE6configEE10dependencyELb0EjEC2Ev(ptr noundef nonnull align 8 dereferenceable(8) %0) unnamed_addr #7 comdat align 2 {
  %2 = alloca ptr, align 8
  store ptr %0, ptr %2, align 8, !tbaa !265
  %3 = load ptr, ptr %2, align 8
  %4 = getelementptr inbounds nuw %class.vector, ptr %3, i32 0, i32 0
  store ptr null, ptr %4, align 8, !tbaa !267
  ret void
}

; Function Attrs: mustprogress nounwind uwtable
define linkonce_odr hidden void @_ZN10ptr_vectorIN18dependency_managerIN25scoped_dependency_managerIPvE6configEE10dependencyEEC2Ev(ptr noundef nonnull align 8 dereferenceable(8) %0) unnamed_addr #7 comdat align 2 {
  %2 = alloca ptr, align 8
  store ptr %0, ptr %2, align 8, !tbaa !618
  %3 = load ptr, ptr %2, align 8
  call void @_ZN6vectorIPN18dependency_managerIN25scoped_dependency_managerIPvE6configEE10dependencyELb0EjEC2Ev(ptr noundef nonnull align 8 dereferenceable(8) %3) #3
  ret void
}

; Function Attrs: inlinehint mustprogress nounwind uwtable
define linkonce_odr hidden void @_ZN25scoped_dependency_managerIPvE6config9allocatorD2Ev(ptr noundef nonnull align 8 dereferenceable(40) %0) unnamed_addr #6 comdat align 2 {
  %2 = alloca ptr, align 8
  store ptr %0, ptr %2, align 8, !tbaa !263
  %3 = load ptr, ptr %2, align 8
  %4 = getelementptr inbounds nuw %"class.scoped_dependency_manager<void *>::config::allocator", ptr %3, i32 0, i32 0
  call void @_ZN6regionD1Ev(ptr noundef nonnull align 8 dereferenceable(40) %4) #3
  ret void
}

; Function Attrs: mustprogress nounwind uwtable
define linkonce_odr hidden void @_ZN18dependency_managerIN25scoped_dependency_managerIPvE6configEEC2ERNS3_13value_managerERNS3_9allocatorE(ptr noundef nonnull align 8 dereferenceable(24) %0, ptr noundef nonnull align 1 dereferenceable(1) %1, ptr noundef nonnull align 8 dereferenceable(40) %2) unnamed_addr #7 comdat align 2 {
  %4 = alloca ptr, align 8
  %5 = alloca ptr, align 8
  %6 = alloca ptr, align 8
  store ptr %0, ptr %4, align 8, !tbaa !261
  store ptr %1, ptr %5, align 8, !tbaa !616
  store ptr %2, ptr %6, align 8, !tbaa !263
  %7 = load ptr, ptr %4, align 8
  %8 = getelementptr inbounds nuw %class.dependency_manager, ptr %7, i32 0, i32 0
  %9 = load ptr, ptr %5, align 8, !tbaa !616
  store ptr %9, ptr %8, align 8, !tbaa !616
  %10 = getelementptr inbounds nuw %class.dependency_manager, ptr %7, i32 0, i32 1
  %11 = load ptr, ptr %6, align 8, !tbaa !263
  store ptr %11, ptr %10, align 8, !tbaa !263
  %12 = getelementptr inbounds nuw %class.dependency_manager, ptr %7, i32 0, i32 2
  call void @_ZN10ptr_vectorIN18dependency_managerIN25scoped_dependency_managerIPvE6configEE10dependencyEEC2Ev(ptr noundef nonnull align 8 dereferenceable(8) %12) #3
  ret void
}

; Function Attrs: inlinehint mustprogress uwtable
define linkonce_odr hidden void @_ZN25scoped_dependency_managerIPvE6config9allocatorC2Ev(ptr noundef nonnull align 8 dereferenceable(40) %0) unnamed_addr #8 comdat align 2 {
  %2 = alloca ptr, align 8
  store ptr %0, ptr %2, align 8, !tbaa !263
  %3 = load ptr, ptr %2, align 8
  %4 = getelementptr inbounds nuw %"class.scoped_dependency_manager<void *>::config::allocator", ptr %3, i32 0, i32 0
  call void @_ZN6regionC1Ev(ptr noundef nonnull align 8 dereferenceable(40) %4)
  ret void
}

; Function Attrs: mustprogress nounwind uwtable
define linkonce_odr hidden void @_ZN7datalog17tr_infrastructureINS_15relation_traitsEE13plugin_objectC2ERK6symbolRNS_16relation_managerE(ptr noundef nonnull align 8 dereferenceable(32) %0, ptr noundef nonnull align 8 dereferenceable(8) %1, ptr noundef nonnull align 8 dereferenceable(200) %2) unnamed_addr #7 comdat align 2 {
  %4 = alloca ptr, align 8
  %5 = alloca ptr, align 8
  %6 = alloca ptr, align 8
  store ptr %0, ptr %4, align 8, !tbaa !26
  store ptr %1, ptr %5, align 8, !tbaa !14
  store ptr %2, ptr %6, align 8, !tbaa !8
  %7 = load ptr, ptr %4, align 8
  store ptr getelementptr inbounds inrange(-16, 200) ({ [27 x ptr] }, ptr @_ZTVN7datalog17tr_infrastructureINS_15relation_traitsEE13plugin_objectE, i32 0, i32 0, i32 2), ptr %7, align 8, !tbaa !10
  %8 = getelementptr inbounds nuw %"class.datalog::tr_infrastructure<datalog::relation_traits>::plugin_object", ptr %7, i32 0, i32 1
  store i32 -1, ptr %8, align 8, !tbaa !256
  %9 = getelementptr inbounds nuw %"class.datalog::tr_infrastructure<datalog::relation_traits>::plugin_object", ptr %7, i32 0, i32 2
  %10 = load ptr, ptr %5, align 8, !tbaa !14
  call void @llvm.memcpy.p0.p0.i64(ptr align 8 %9, ptr align 8 %10, i64 8, i1 false), !tbaa.struct !260
  %11 = getelementptr inbounds nuw %"class.datalog::tr_infrastructure<datalog::relation_traits>::plugin_object", ptr %7, i32 0, i32 3
  %12 = load ptr, ptr %6, align 8, !tbaa !8
  store ptr %12, ptr %11, align 8, !tbaa !8
  ret void
}

; Function Attrs: mustprogress nounwind uwtable
define linkonce_odr hidden void @_ZN7datalog17tr_infrastructureINS_15relation_traitsEE13plugin_objectD2Ev(ptr noundef nonnull align 8 dereferenceable(32) %0) unnamed_addr #7 comdat align 2 {
  %2 = alloca ptr, align 8
  store ptr %0, ptr %2, align 8, !tbaa !26
  ret void
}

; Function Attrs: mustprogress uwtable
define linkonce_odr hidden noundef nonnull align 8 dereferenceable(976) ptr @_ZNK7datalog17tr_infrastructureINS_15relation_traitsEE13plugin_object15get_ast_managerEv(ptr noundef nonnull align 8 dereferenceable(32) %0) #4 comdat align 2 {
  %2 = alloca ptr, align 8
  store ptr %0, ptr %2, align 8, !tbaa !26
  %3 = load ptr, ptr %2, align 8
  %4 = getelementptr inbounds nuw %"class.datalog::tr_infrastructure<datalog::relation_traits>::plugin_object", ptr %3, i32 0, i32 3
  %5 = load ptr, ptr %4, align 8, !tbaa !28
  %6 = call noundef nonnull align 8 dereferenceable(976) ptr @_ZN7datalog32get_ast_manager_from_rel_managerERKNS_16relation_managerE(ptr noundef nonnull align 8 dereferenceable(200) %5)
  ret ptr %6
}

; Function Attrs: mustprogress uwtable
define linkonce_odr hidden void @_ZN25scoped_dependency_managerIPvEC2Ev(ptr noundef nonnull align 8 dereferenceable(72) %0) unnamed_addr #4 comdat align 2 personality ptr @__gxx_personality_v0 {
  %2 = alloca ptr, align 8
  %3 = alloca ptr, align 8
  %4 = alloca i32, align 4
  store ptr %0, ptr %2, align 8, !tbaa !24
  %5 = load ptr, ptr %2, align 8
  %6 = getelementptr inbounds nuw %class.scoped_dependency_manager, ptr %5, i32 0, i32 1
  call void @_ZN25scoped_dependency_managerIPvE6config9allocatorC2Ev(ptr noundef nonnull align 8 dereferenceable(40) %6)
  %7 = getelementptr inbounds nuw %class.scoped_dependency_manager, ptr %5, i32 0, i32 2
  %8 = getelementptr inbounds nuw %class.scoped_dependency_manager, ptr %5, i32 0, i32 1
  invoke void @_ZN18dependency_managerIN25scoped_dependency_managerIPvE6configEEC2ERNS3_13value_managerERNS3_9allocatorE(ptr noundef nonnull align 8 dereferenceable(24) %7, ptr noundef nonnull align 1 dereferenceable(1) %5, ptr noundef nonnull align 8 dereferenceable(40) %8)
          to label %9 unwind label %10

9:                                                ; preds = %1
  ret void

10:                                               ; preds = %1
  %11 = landingpad { ptr, i32 }
          cleanup
  %12 = extractvalue { ptr, i32 } %11, 0
  store ptr %12, ptr %3, align 8
  %13 = extractvalue { ptr, i32 } %11, 1
  store i32 %13, ptr %4, align 4
  call void @_ZN25scoped_dependency_managerIPvE6config9allocatorD2Ev(ptr noundef nonnull align 8 dereferenceable(40) %6) #3
  br label %14

14:                                               ; preds = %10
  %15 = load ptr, ptr %3, align 8
  %16 = load i32, ptr %4, align 4
  %17 = insertvalue { ptr, i32 } poison, ptr %15, 0
  %18 = insertvalue { ptr, i32 } %17, i32 %16, 1
  resume { ptr, i32 } %18
}

; Function Attrs: mustprogress uwtable
define linkonce_odr hidden void @_ZN7datalog15relation_pluginC2ERK6symbolRNS_16relation_managerENS0_21special_relation_typeE(ptr noundef nonnull align 8 dereferenceable(36) %0, ptr noundef nonnull align 8 dereferenceable(8) %1, ptr noundef nonnull align 8 dereferenceable(200) %2, i32 noundef %3) unnamed_addr #4 comdat align 2 {
  %5 = alloca ptr, align 8
  %6 = alloca ptr, align 8
  %7 = alloca ptr, align 8
  %8 = alloca i32, align 4
  store ptr %0, ptr %5, align 8, !tbaa !12
  store ptr %1, ptr %6, align 8, !tbaa !14
  store ptr %2, ptr %7, align 8, !tbaa !8
  store i32 %3, ptr %8, align 4, !tbaa !16
  %9 = load ptr, ptr %5, align 8
  %10 = load ptr, ptr %6, align 8, !tbaa !14
  %11 = load ptr, ptr %7, align 8, !tbaa !8
  call void @_ZN7datalog17tr_infrastructureINS_15relation_traitsEE13plugin_objectC2ERK6symbolRNS_16relation_managerE(ptr noundef nonnull align 8 dereferenceable(32) %9, ptr noundef nonnull align 8 dereferenceable(8) %10, ptr noundef nonnull align 8 dereferenceable(200) %11)
  store ptr getelementptr inbounds inrange(-16, 208) ({ [28 x ptr] }, ptr @_ZTVN7datalog15relation_pluginE, i32 0, i32 0, i32 2), ptr %9, align 8, !tbaa !10
  %12 = getelementptr inbounds nuw %"class.datalog::relation_plugin", ptr %9, i32 0, i32 1
  %13 = load i32, ptr %8, align 4, !tbaa !16
  store i32 %13, ptr %12, align 8, !tbaa !18
  ret void
}

; Function Attrs: mustprogress uwtable
define linkonce_odr hidden ptr @_ZN7datalog24interval_relation_plugin8get_nameEv() #4 comdat align 2 {
  %1 = alloca %class.symbol, align 8
  call void @_ZN6symbolC1EPKc(ptr noundef nonnull align 8 dereferenceable(8) %1, ptr noundef @.str.4)
  %2 = getelementptr inbounds nuw %class.symbol, ptr %1, i32 0, i32 0
  %3 = load ptr, ptr %2, align 8
  ret ptr %3
}

; Function Attrs: mustprogress uwtable
define hidden void @_ZN7datalog24interval_relation_pluginC2ERNS_16relation_managerE(ptr noundef nonnull align 8 dereferenceable(240) %0, ptr noundef nonnull align 8 dereferenceable(200) %1) unnamed_addr #4 align 2 personality ptr @__gxx_personality_v0 {
  %3 = alloca ptr, align 8
  %4 = alloca ptr, align 8
  %5 = alloca %class.symbol, align 8
  %6 = alloca ptr, align 8
  %7 = alloca i32, align 4
  store ptr %0, ptr %3, align 8, !tbaa !3
  store ptr %1, ptr %4, align 8, !tbaa !8
  %8 = load ptr, ptr %3, align 8
  call void @llvm.lifetime.start.p0(i64 8, ptr %5) #3
  %9 = call ptr @_ZN7datalog24interval_relation_plugin8get_nameEv()
  %10 = getelementptr inbounds nuw %class.symbol, ptr %5, i32 0, i32 0
  store ptr %9, ptr %10, align 8
  %11 = load ptr, ptr %4, align 8, !tbaa !8
  call void @_ZN7datalog15relation_pluginC2ERK6symbolRNS_16relation_managerENS0_21special_relation_typeE(ptr noundef nonnull align 8 dereferenceable(36) %8, ptr noundef nonnull align 8 dereferenceable(8) %5, ptr noundef nonnull align 8 dereferenceable(200) %11, i32 noundef 0)
  call void @llvm.lifetime.end.p0(i64 8, ptr %5) #3
  store ptr getelementptr inbounds inrange(-16, 208) ({ [28 x ptr] }, ptr @_ZTVN7datalog24interval_relation_pluginE, i32 0, i32 0, i32 2), ptr %8, align 8, !tbaa !10
  %12 = getelementptr inbounds nuw %"class.datalog::interval_relation_plugin", ptr %8, i32 0, i32 1
  invoke void @_ZN25scoped_dependency_managerIPvEC2Ev(ptr noundef nonnull align 8 dereferenceable(72) %12)
          to label %13 unwind label %21

13:                                               ; preds = %2
  %14 = getelementptr inbounds nuw %"class.datalog::interval_relation_plugin", ptr %8, i32 0, i32 2
  %15 = getelementptr inbounds nuw %"class.datalog::interval_relation_plugin", ptr %8, i32 0, i32 1
  invoke void @_ZN12old_intervalC1ER25scoped_dependency_managerIPvE(ptr noundef nonnull align 8 dereferenceable(112) %14, ptr noundef nonnull align 8 dereferenceable(72) %15)
          to label %16 unwind label %25

16:                                               ; preds = %13
  %17 = getelementptr inbounds nuw %"class.datalog::interval_relation_plugin", ptr %8, i32 0, i32 3
  %18 = invoke noundef nonnull align 8 dereferenceable(976) ptr @_ZNK7datalog17tr_infrastructureINS_15relation_traitsEE13plugin_object15get_ast_managerEv(ptr noundef nonnull align 8 dereferenceable(32) %8)
          to label %19 unwind label %29

19:                                               ; preds = %16
  invoke void @_ZN10arith_utilC1ER11ast_manager(ptr noundef nonnull align 8 dereferenceable(16) %17, ptr noundef nonnull align 8 dereferenceable(976) %18)
          to label %20 unwind label %29

20:                                               ; preds = %19
  ret void

21:                                               ; preds = %2
  %22 = landingpad { ptr, i32 }
          cleanup
  %23 = extractvalue { ptr, i32 } %22, 0
  store ptr %23, ptr %6, align 8
  %24 = extractvalue { ptr, i32 } %22, 1
  store i32 %24, ptr %7, align 4
  br label %34

25:                                               ; preds = %13
  %26 = landingpad { ptr, i32 }
          cleanup
  %27 = extractvalue { ptr, i32 } %26, 0
  store ptr %27, ptr %6, align 8
  %28 = extractvalue { ptr, i32 } %26, 1
  store i32 %28, ptr %7, align 4
  br label %33

29:                                               ; preds = %19, %16
  %30 = landingpad { ptr, i32 }
          cleanup
  %31 = extractvalue { ptr, i32 } %30, 0
  store ptr %31, ptr %6, align 8
  %32 = extractvalue { ptr, i32 } %30, 1
  store i32 %32, ptr %7, align 4
  call void @_ZN12old_intervalD2Ev(ptr noundef nonnull align 8 dereferenceable(112) %14) #3
  br label %33

33:                                               ; preds = %29, %25
  call void @_ZN25scoped_dependency_managerIPvED2Ev(ptr noundef nonnull align 8 dereferenceable(72) %12) #3
  br label %34

34:                                               ; preds = %33, %21
  call void @_ZN7datalog17tr_infrastructureINS_15relation_traitsEE13plugin_objectD2Ev(ptr noundef nonnull align 8 dereferenceable(36) %8) #3
  br label %35

35:                                               ; preds = %34
  %36 = load ptr, ptr %6, align 8
  %37 = load i32, ptr %7, align 4
  %38 = insertvalue { ptr, i32 } poison, ptr %36, 0
  %39 = insertvalue { ptr, i32 } %38, i32 %37, 1
  resume { ptr, i32 } %39
}