; Function Attrs: mustprogress uwtable
define hidden void @_ZN7datalog24interval_relation_pluginC2ERNS_16relation_managerE(ptr noundef nonnull align 8 dereferenceable(240) initializes((0, 12), (16, 36)) %0, ptr noundef nonnull align 8 dereferenceable(200) %1) unnamed_addr #3 align 2 personality ptr @__gxx_personality_v0 {
  %3 = alloca %class.symbol, align 8
  call void @llvm.lifetime.start.p0(i64 8, ptr nonnull %3)
  call void @_ZN6symbolC1EPKc(ptr noundef nonnull align 8 dereferenceable(8) %3, ptr noundef nonnull @.str.4)
  %4 = load ptr, ptr %3, align 8
  call void @llvm.lifetime.end.p0(i64 8, ptr nonnull %3)
  %5 = getelementptr inbounds nuw i8, ptr %0, i64 8
  store i32 -1, ptr %5, align 8, !tbaa !3
  %6 = getelementptr inbounds nuw i8, ptr %0, i64 16
  %7 = ptrtoint ptr %4 to i64
  store i64 %7, ptr %6, align 8, !tbaa !12
  %8 = getelementptr inbounds nuw i8, ptr %0, i64 24
  store ptr %1, ptr %8, align 8, !tbaa !13
  %9 = getelementptr inbounds nuw i8, ptr %0, i64 32
  store i32 0, ptr %9, align 8, !tbaa !14
  store ptr getelementptr inbounds nuw inrange(-16, 208) (i8, ptr @_ZTVN7datalog24interval_relation_pluginE, i64 16), ptr %0, align 8, !tbaa !17
  %10 = getelementptr inbounds nuw i8, ptr %0, i64 40
  %11 = getelementptr inbounds nuw i8, ptr %0, i64 48
  call void @_ZN6regionC1Ev(ptr noundef nonnull align 8 dereferenceable(40) %11)
  %12 = getelementptr inbounds nuw i8, ptr %0, i64 88
  store ptr %10, ptr %12, align 8, !tbaa !19
  %13 = getelementptr inbounds nuw i8, ptr %0, i64 96
  store ptr %11, ptr %13, align 8, !tbaa !21
  %14 = getelementptr inbounds nuw i8, ptr %0, i64 104
  store ptr null, ptr %14, align 8, !tbaa !23
  %15 = getelementptr inbounds nuw i8, ptr %0, i64 112
  invoke void @_ZN12old_intervalC1ER25scoped_dependency_managerIPvE(ptr noundef nonnull align 8 dereferenceable(112) %15, ptr noundef nonnull align 8 dereferenceable(72) %10)
          to label %16 unwind label %21

16:                                               ; preds = %2
  %17 = load ptr, ptr %8, align 8, !tbaa !27
  %18 = invoke noundef nonnull align 8 dereferenceable(976) ptr @_ZN7datalog32get_ast_manager_from_rel_managerERKNS_16relation_managerE(ptr noundef nonnull align 8 dereferenceable(200) %17)
          to label %_ZNK7datalog17tr_infrastructureINS_15relation_traitsEE13plugin_object15get_ast_managerEv.exit unwind label %23

_ZNK7datalog17tr_infrastructureINS_15relation_traitsEE13plugin_object15get_ast_managerEv.exit: ; preds = %16
  %19 = getelementptr inbounds nuw i8, ptr %0, i64 224
  invoke void @_ZN10arith_utilC1ER11ast_manager(ptr noundef nonnull align 8 dereferenceable(16) %19, ptr noundef nonnull align 8 dereferenceable(976) %18)
          to label %20 unwind label %23

20:                                               ; preds = %_ZNK7datalog17tr_infrastructureINS_15relation_traitsEE13plugin_object15get_ast_managerEv.exit
  ret void

21:                                               ; preds = %2
  %22 = landingpad { ptr, i32 }
          cleanup
  br label %25

23:                                               ; preds = %16, %_ZNK7datalog17tr_infrastructureINS_15relation_traitsEE13plugin_object15get_ast_managerEv.exit
  %24 = landingpad { ptr, i32 }
          cleanup
  call void @_ZN12old_intervalD2Ev(ptr noundef nonnull align 8 dereferenceable(112) %15) #25
  br label %25

25:                                               ; preds = %23, %21
  %.pn = phi { ptr, i32 } [ %24, %23 ], [ %22, %21 ]
  call void @_ZN25scoped_dependency_managerIPvED2Ev(ptr noundef nonnull align 8 dereferenceable(72) %10) #25
  resume { ptr, i32 } %.pn
}